target datalayout = "e-m:e-p270:32:32-p271:32:32-p272:64:64-i64:64-i128:128-f80:128-n8:16:32:64-S128"
target triple = "x86_64-pc-linux-gnu"

; Function Attrs: inlinehint mustprogress nounwind uwtable
define internal noundef signext i8 @_ZL9U_FAILURE10UErrorCode(i32 noundef %0) #1 {
  %2 = alloca i32, align 4
  store i32 %0, ptr %2, align 4, !tbaa !13
  %3 = load i32, ptr %2, align 4, !tbaa !13
  %4 = icmp sgt i32 %3, 0
  %5 = zext i1 %4 to i8
  ret i8 %5
}

; Function Attrs: mustprogress uwtable
define i32 @uidna_toASCII_77(ptr noundef %0, i32 noundef %1, ptr noundef %2, i32 noundef %3, i32 noundef %4, ptr noundef %5, ptr noundef %6) #0 {
  %8 = alloca i32, align 4
  %9 = alloca ptr, align 8
  %10 = alloca i32, align 4
  %11 = alloca ptr, align 8
  %12 = alloca i32, align 4
  %13 = alloca i32, align 4
  %14 = alloca ptr, align 8
  %15 = alloca ptr, align 8
  %16 = alloca ptr, align 8
  %17 = alloca i32, align 4
  %18 = alloca i32, align 4
  store ptr %0, ptr %9, align 8, !tbaa !3
  store i32 %1, ptr %10, align 4, !tbaa !8
  store ptr %2, ptr %11, align 8, !tbaa !3
  store i32 %3, ptr %12, align 4, !tbaa !8
  store i32 %4, ptr %13, align 4, !tbaa !8
  store ptr %5, ptr %14, align 8, !tbaa !10
  store ptr %6, ptr %15, align 8, !tbaa !12
  %19 = load ptr, ptr %15, align 8, !tbaa !12
  %20 = icmp eq ptr %19, null
  br i1 %20, label %26, label %21

21:                                               ; preds = %7
  %22 = load ptr, ptr %15, align 8, !tbaa !12
  %23 = load i32, ptr %22, align 4, !tbaa !13
  %24 = call noundef signext i8 @_ZL9U_FAILURE10UErrorCode(i32 noundef %23)
  %25 = icmp ne i8 %24, 0
  br i1 %25, label %26, label %27

26:                                               ; preds = %21, %7
  store i32 0, ptr %8, align 4
  br label %65

27:                                               ; preds = %21
  %28 = load ptr, ptr %9, align 8, !tbaa !3
  %29 = icmp eq ptr %28, null
  br i1 %29, label %42, label %30

30:                                               ; preds = %27
  %31 = load i32, ptr %10, align 4, !tbaa !8
  %32 = icmp slt i32 %31, -1
  br i1 %32, label %42, label %33

33:                                               ; preds = %30
  %34 = load i32, ptr %12, align 4, !tbaa !8
  %35 = icmp slt i32 %34, 0
  br i1 %35, label %42, label %36

36:                                               ; preds = %33
  %37 = load ptr, ptr %11, align 8, !tbaa !3
  %38 = icmp ne ptr %37, null
  br i1 %38, label %44, label %39

39:                                               ; preds = %36
  %40 = load i32, ptr %12, align 4, !tbaa !8
  %41 = icmp sgt i32 %40, 0
  br i1 %41, label %42, label %44

42:                                               ; preds = %39, %33, %30, %27
  %43 = load ptr, ptr %15, align 8, !tbaa !12
  store i32 1, ptr %43, align 4, !tbaa !13
  store i32 0, ptr %8, align 4
  br label %65

44:                                               ; preds = %39, %36
  call void @llvm.lifetime.start.p0(i64 8, ptr %16) #6
  %45 = load ptr, ptr %15, align 8, !tbaa !12
  %46 = call ptr @usprep_openByType_77(i32 noundef 0, ptr noundef %45)
  store ptr %46, ptr %16, align 8, !tbaa !15
  %47 = load ptr, ptr %15, align 8, !tbaa !12
  %48 = load i32, ptr %47, align 4, !tbaa !13
  %49 = call noundef signext i8 @_ZL9U_FAILURE10UErrorCode(i32 noundef %48)
  %50 = icmp ne i8 %49, 0
  br i1 %50, label %51, label %52

51:                                               ; preds = %44
  store i32 -1, ptr %8, align 4
  store i32 1, ptr %17, align 4
  br label %64

52:                                               ; preds = %44
  call void @llvm.lifetime.start.p0(i64 4, ptr %18) #6
  %53 = load ptr, ptr %9, align 8, !tbaa !3
  %54 = load i32, ptr %10, align 4, !tbaa !8
  %55 = load ptr, ptr %11, align 8, !tbaa !3
  %56 = load i32, ptr %12, align 4, !tbaa !8
  %57 = load i32, ptr %13, align 4, !tbaa !8
  %58 = load ptr, ptr %16, align 8, !tbaa !15
  %59 = load ptr, ptr %14, align 8, !tbaa !10
  %60 = load ptr, ptr %15, align 8, !tbaa !12
  %61 = call noundef i32 @_ZL17_internal_toASCIIPKDsiPDsiiP18UStringPrepProfileP11UParseErrorP10UErrorCode(ptr noundef %53, i32 noundef %54, ptr noundef %55, i32 noundef %56, i32 noundef %57, ptr noundef %58, ptr noundef %59, ptr noundef %60)
  store i32 %61, ptr %18, align 4, !tbaa !8
  %62 = load ptr, ptr %16, align 8, !tbaa !15
  call void @usprep_close_77(ptr noundef %62)
  %63 = load i32, ptr %18, align 4, !tbaa !8
  store i32 %63, ptr %8, align 4
  store i32 1, ptr %17, align 4
  call void @llvm.lifetime.end.p0(i64 4, ptr %18) #6
  br label %64

64:                                               ; preds = %52, %51
  call void @llvm.lifetime.end.p0(i64 8, ptr %16) #6
  br label %65

65:                                               ; preds = %64, %42, %26
  %66 = load i32, ptr %8, align 4
  ret i32 %66
}